#include <math.h>
#include <stdio.h>
#include <stdlib.h>
#include <string.h>

main()
{
	int days[]={0,31,28,31,30,31,30,31,31,30,31,30,31};
	int m=0,w;
	scanf ("%d",&w);
	if((w+12)%7==5)
	printf ("1\n");
	for (int i=2;i<=12;i++){
		
		 for (int j=1;j<=i-1;j++)
		 {
		 m+=days[j];}
		 m =w+m+12;
		 if(m%7==5)
		 printf("%d\n",i);
		m=0;
		}
	
} 